; Function Attrs: mustprogress nounwind uwtable
define hidden noundef ptr @_ZN15G1CollectedHeap24parallel_object_iteratorEj(ptr nocapture nonnull readnone align 8 %0, i32 noundef %1) unnamed_addr #0 align 2 {
  %3 = tail call noundef ptr @_Z12AllocateHeapm8MEMFLAGSN17AllocFailStrategy13AllocFailEnumE(i64 noundef 32, i8 noundef zeroext 5, i32 noundef 0) #23
  store ptr getelementptr inbounds inrange(-16, 24) (i8, ptr @_ZTV24G1ParallelObjectIterator, i64 16), ptr %3, align 8
  %4 = getelementptr inbounds i8, ptr %3, i64 8
  %5 = load ptr, ptr @_ZN8Universe14_collectedHeapE, align 8
  store ptr %5, ptr %4, align 8
  %6 = icmp eq i32 %1, 0
  br i1 %6, label %7, label %_ZN24G1ParallelObjectIteratorC2Ej.exit

7:                                                ; preds = %2
  %8 = getelementptr inbounds i8, ptr %5, i64 128
  %9 = load ptr, ptr %8, align 8
  %10 = getelementptr inbounds i8, ptr %9, i64 32
  %11 = load i32, ptr %10, align 8
  br label %_ZN24G1ParallelObjectIteratorC2Ej.exit

_ZN24G1ParallelObjectIteratorC2Ej.exit:           ; preds = %2, %7
  %12 = phi i32 [ %11, %7 ], [ %1, %2 ]
  %13 = getelementptr inbounds i8, ptr %3, i64 16
  tail call void @_ZN19G1HeapRegionClaimerC1Ej(ptr noundef nonnull align 8 dereferenceable(16) %13, i32 noundef %12) #23
  ret ptr %3
}